target datalayout = "e-m:e-p270:32:32-p271:32:32-p272:64:64-i64:64-i128:128-f80:128-n8:16:32:64-S128"
target triple = "x86_64-unknown-linux-gnu"

%"class.std::__cxx11::basic_string" = type { %"struct.std::__cxx11::basic_string<char>::_Alloc_hider", i64, %union.anon }
%"struct.std::__cxx11::basic_string<char>::_Alloc_hider" = type { ptr }
%union.anon = type { i64, [8 x i8] }
%"class.std::basic_string_view" = type { i64, ptr }
%"class.google::protobuf::internal::SymbolBase" = type { i8 }
%"class.google::protobuf::ServiceDescriptor" = type <{ %"class.google::protobuf::internal::SymbolBase", [7 x i8], ptr, ptr, ptr, ptr, ptr, ptr, i32, [4 x i8] }>

; Function Attrs: mustprogress uwtable
define hidden void @_ZN6google8protobuf8compiler4java17ClassNameResolver20GetJavaClassFullNameB5cxx11ESt17basic_string_viewIcSt11char_traitsIcEEPKNS0_14FileDescriptorEb(ptr noalias sret(%"class.std::__cxx11::basic_string") align 8 %agg.result, ptr noundef nonnull align 8 dereferenceable(112) %this, i64 %name_without_package.coerce0, ptr %name_without_package.coerce1, ptr noundef %file, i1 noundef zeroext %immutable) #4 align 2 {
entry:
  %result.ptr = alloca ptr, align 8
  %name_without_package = alloca %"class.std::basic_string_view", align 8
  %this.addr = alloca ptr, align 8
  %file.addr = alloca ptr, align 8
  %immutable.addr = alloca i8, align 1
  %agg.tmp = alloca %"class.std::basic_string_view", align 8
  store ptr %agg.result, ptr %result.ptr, align 8
  %0 = getelementptr inbounds { i64, ptr }, ptr %name_without_package, i32 0, i32 0
  store i64 %name_without_package.coerce0, ptr %0, align 8
  %1 = getelementptr inbounds { i64, ptr }, ptr %name_without_package, i32 0, i32 1
  store ptr %name_without_package.coerce1, ptr %1, align 8
  store ptr %this, ptr %this.addr, align 8
  store ptr %file, ptr %file.addr, align 8
  %frombool = zext i1 %immutable to i8
  store i8 %frombool, ptr %immutable.addr, align 1
  %this1 = load ptr, ptr %this.addr, align 8
  call void @llvm.memcpy.p0.p0.i64(ptr align 8 %agg.tmp, ptr align 8 %name_without_package, i64 16, i1 false)
  %2 = load ptr, ptr %file.addr, align 8
  %3 = load i8, ptr %immutable.addr, align 1
  %tobool = trunc i8 %3 to i1
  %4 = getelementptr inbounds { i64, ptr }, ptr %agg.tmp, i32 0, i32 0
  %5 = load i64, ptr %4, align 8
  %6 = getelementptr inbounds { i64, ptr }, ptr %agg.tmp, i32 0, i32 1
  %7 = load ptr, ptr %6, align 8
  call void @_ZN6google8protobuf8compiler4java17ClassNameResolver20GetJavaClassFullNameB5cxx11ESt17basic_string_viewIcSt11char_traitsIcEEPKNS0_14FileDescriptorEbb(ptr sret(%"class.std::__cxx11::basic_string") align 8 %agg.result, ptr noundef nonnull align 8 dereferenceable(112) %this1, i64 %5, ptr %7, ptr noundef %2, i1 noundef zeroext %tobool, i1 noundef zeroext false)
  ret void
}

; Function Attrs: mustprogress nounwind uwtable
define linkonce_odr hidden noundef ptr @_ZNK6google8protobuf17ServiceDescriptor4fileEv(ptr noundef nonnull align 8 dereferenceable(60) %this) #5 comdat align 2 {
entry:
  %this.addr = alloca ptr, align 8
  store ptr %this, ptr %this.addr, align 8
  %this1 = load ptr, ptr %this.addr, align 8
  %file_ = getelementptr inbounds %"class.google::protobuf::ServiceDescriptor", ptr %this1, i32 0, i32 3
  %0 = load ptr, ptr %file_, align 8
  ret ptr %0
}

; Function Attrs: mustprogress uwtable
define hidden void @_ZN6google8protobuf8compiler4java17ClassNameResolver23GetJavaMutableClassNameB5cxx11EPKNS0_17ServiceDescriptorE(ptr noalias sret(%"class.std::__cxx11::basic_string") align 8 %agg.result, ptr noundef nonnull align 8 dereferenceable(112) %this, ptr noundef %descriptor) #4 align 2 personality ptr @__gxx_personality_v0 {
entry:
  %result.ptr = alloca ptr, align 8
  %this.addr = alloca ptr, align 8
  %descriptor.addr = alloca ptr, align 8
  %agg.tmp = alloca %"class.std::basic_string_view", align 8
  %ref.tmp = alloca %"class.std::__cxx11::basic_string", align 8
  %exn.slot = alloca ptr, align 8
  %ehselector.slot = alloca i32, align 4
  store ptr %agg.result, ptr %result.ptr, align 8
  store ptr %this, ptr %this.addr, align 8
  store ptr %descriptor, ptr %descriptor.addr, align 8
  %this1 = load ptr, ptr %this.addr, align 8
  %0 = load ptr, ptr %descriptor.addr, align 8
  call void @_ZN6google8protobuf8compiler4java12_GLOBAL__N_123ClassNameWithoutPackageB5cxx11EPKNS0_17ServiceDescriptorEb(ptr sret(%"class.std::__cxx11::basic_string") align 8 %ref.tmp, ptr noundef %0, i1 noundef zeroext false)
  %call = call { i64, ptr } @_ZNKSt7__cxx1112basic_stringIcSt11char_traitsIcESaIcEEcvSt17basic_string_viewIcS2_EEv(ptr noundef nonnull align 8 dereferenceable(32) %ref.tmp) #3
  %1 = getelementptr inbounds { i64, ptr }, ptr %agg.tmp, i32 0, i32 0
  %2 = extractvalue { i64, ptr } %call, 0
  store i64 %2, ptr %1, align 8
  %3 = getelementptr inbounds { i64, ptr }, ptr %agg.tmp, i32 0, i32 1
  %4 = extractvalue { i64, ptr } %call, 1
  store ptr %4, ptr %3, align 8
  %5 = load ptr, ptr %descriptor.addr, align 8
  %call2 = invoke noundef ptr @_ZNK6google8protobuf17ServiceDescriptor4fileEv(ptr noundef nonnull align 8 dereferenceable(60) %5)
          to label %invoke.cont unwind label %lpad

invoke.cont:                                      ; preds = %entry
  %6 = getelementptr inbounds { i64, ptr }, ptr %agg.tmp, i32 0, i32 0
  %7 = load i64, ptr %6, align 8
  %8 = getelementptr inbounds { i64, ptr }, ptr %agg.tmp, i32 0, i32 1
  %9 = load ptr, ptr %8, align 8
  invoke void @_ZN6google8protobuf8compiler4java17ClassNameResolver20GetJavaClassFullNameB5cxx11ESt17basic_string_viewIcSt11char_traitsIcEEPKNS0_14FileDescriptorEb(ptr sret(%"class.std::__cxx11::basic_string") align 8 %agg.result, ptr noundef nonnull align 8 dereferenceable(112) %this1, i64 %7, ptr %9, ptr noundef %call2, i1 noundef zeroext false)
          to label %invoke.cont3 unwind label %lpad

invoke.cont3:                                     ; preds = %invoke.cont
  call void @_ZNSt7__cxx1112basic_stringIcSt11char_traitsIcESaIcEED1Ev(ptr noundef nonnull align 8 dereferenceable(32) %ref.tmp) #3
  ret void

lpad:                                             ; preds = %invoke.cont, %entry
  %10 = landingpad { ptr, i32 }
          cleanup
  %11 = extractvalue { ptr, i32 } %10, 0
  store ptr %11, ptr %exn.slot, align 8
  %12 = extractvalue { ptr, i32 } %10, 1
  store i32 %12, ptr %ehselector.slot, align 4
  call void @_ZNSt7__cxx1112basic_stringIcSt11char_traitsIcESaIcEED1Ev(ptr noundef nonnull align 8 dereferenceable(32) %ref.tmp) #3
  br label %eh.resume

eh.resume:                                        ; preds = %lpad
  %exn = load ptr, ptr %exn.slot, align 8
  %sel = load i32, ptr %ehselector.slot, align 4
  %lpad.val = insertvalue { ptr, i32 } poison, ptr %exn, 0
  %lpad.val4 = insertvalue { ptr, i32 } %lpad.val, i32 %sel, 1
  resume { ptr, i32 } %lpad.val4
}